target datalayout = "e-m:e-p270:32:32-p271:32:32-p272:64:64-i64:64-i128:128-f80:128-n8:16:32:64-S128"
target triple = "x86_64-pc-linux-gnu"

%"class.ncnn::ModelBin" = type { ptr }
%"class.ncnn::ModelBinFromMatArray" = type { %"class.ncnn::ModelBin", ptr }

; Function Attrs: mustprogress nounwind uwtable
define hidden void @_ZN4ncnn8ModelBinD2Ev(ptr noundef nonnull align 8 dereferenceable(8) %0) unnamed_addr #0 align 2 {
  %2 = alloca ptr, align 8
  store ptr %0, ptr %2, align 8
  ret void
}

; Function Attrs: mustprogress nounwind uwtable
define hidden void @_ZN4ncnn20ModelBinFromMatArrayD2Ev(ptr noundef nonnull align 8 dereferenceable(16) %0) unnamed_addr #0 align 2 {
  %2 = alloca ptr, align 8
  store ptr %0, ptr %2, align 8
  %3 = load ptr, ptr %2, align 8
  store ptr getelementptr inbounds inrange(-16, 48) ({ [8 x ptr] }, ptr @_ZTVN4ncnn20ModelBinFromMatArrayE, i32 0, i32 0, i32 2), ptr %3, align 8
  %4 = getelementptr inbounds nuw %"class.ncnn::ModelBinFromMatArray", ptr %3, i32 0, i32 1
  %5 = load ptr, ptr %4, align 8
  %6 = icmp eq ptr %5, null
  br i1 %6, label %8, label %7

7:                                                ; preds = %1
  call void @_ZdlPvm(ptr noundef %5, i64 noundef 8) #11
  br label %8

8:                                                ; preds = %7, %1
  call void @_ZN4ncnn8ModelBinD2Ev(ptr noundef nonnull align 8 dereferenceable(8) %3) #10
  ret void
}